; Function Attrs: mustprogress uwtable
define internal fastcc noundef signext range(i8 0, 2) i8 @_ZN6icu_7712_GLOBAL__N_119hasNoMajorSolarTermEPKNS_8TimeZoneEiR10UErrorCode(ptr noundef %0, i32 noundef %1, ptr noundef nonnull align 4 dereferenceable(4) %2) unnamed_addr #0 {
  %4 = load i32, ptr %2, align 4, !tbaa !21
  %5 = icmp slt i32 %4, 1
  br i1 %5, label %6, label %15

6:                                                ; preds = %3
  %7 = tail call fastcc noundef i32 @_ZN6icu_7712_GLOBAL__N_114majorSolarTermEPKNS_8TimeZoneEiR10UErrorCode(ptr noundef %0, i32 noundef %1, ptr noundef nonnull align 4 dereferenceable(4) %2)
  %8 = add nsw i32 %1, 25
  %9 = sitofp i32 %8 to double
  %10 = tail call fastcc noundef i32 @_ZN6icu_7712_GLOBAL__N_111newMoonNearEPKNS_8TimeZoneEdaR10UErrorCode(ptr noundef %0, double noundef %9, i8 noundef signext 1, ptr noundef nonnull align 4 dereferenceable(4) %2)
  %11 = tail call fastcc noundef i32 @_ZN6icu_7712_GLOBAL__N_114majorSolarTermEPKNS_8TimeZoneEiR10UErrorCode(ptr noundef %0, i32 noundef %10, ptr noundef nonnull align 4 dereferenceable(4) %2)
  %12 = load i32, ptr %2, align 4, !tbaa !21
  %13 = icmp slt i32 %12, 1
  %14 = icmp eq i32 %7, %11
  %narrow = and i1 %14, %13
  %.1 = zext i1 %narrow to i8
  br label %15

15:                                               ; preds = %3, %6
  %.0 = phi i8 [ %.1, %6 ], [ 0, %3 ]
  ret i8 %.0
}